ccopy_reg
_reconstructor
p1
(cdebian_linux.config
ConfigCore
p2
c__builtin__
dict
p3
(dp4
(S'image'
S'amd64'
p5
tp6
(dp7
S'configs'
p8
(lp9
S'kernelarch-x86/config'
p10
asS'bootloaders'
p11
(lp12
S'grub-pc'
p13
aS'extlinux'
p14
aS'lilo'
p15
ass(S'description'
S'm68k'
p16
NS'amiga'
tp17
(dp18
S'hardware'
p19
S'Amiga'
p20
ss(S'base'
g5
S'none'
p21
tp22
(dp23
S'flavours'
p24
(lp25
S'amd64'
p26
ass(S'description'
S'mipsel'
p27
NS'5kc-malta'
tp28
(dp29
S'hardware'
p30
S'MIPS Malta (64-bit)'
p31
sS'hardware-long'
p32
S'MIPS Malta boards (64-bit)'
p33
ss(S'description'
S'sparc'
p34
NS'sparc64-smp'
tp35
(dp36
S'hardware'
p37
S'multiprocessor 64-bit UltraSPARC'
p38
ss(S'image'
S'armel'
p39
NS'ixp4xx'
tp40
(dp41
S'check-size'
p42
S'1441760'
p43
ss(S'image'
S'sparc64'
p44
NS'sparc64-smp'
tp45
(dp46
S'configs'
p47
(lp48
S'sparc/config.sparc64-smp'
p49
ass(S'image'
g27
NS'5kc-malta'
tp50
(dp51
S'configs'
p52
(lp53
S'mips/config.5kc-malta'
p54
ass(S'build'
S'i386'
p55
NS'686-pae'
tp56
(dp57
S'debug-info'
p58
I01
ss(S'image'
S'ia64'
p59
tp60
(dp61
S'suggests'
p62
S'fdutils'
p63
sS'bootloaders'
p64
(lp65
S'elilo'
p66
ass(S'build'
S's390'
p67
NS's390-tape'
tp68
(dp69
S'modules'
p70
I00
ss(S'description'
g39
NS'mv78xx0'
tp71
(dp72
S'hardware'
p73
S'Marvell 78xx0'
p74
sS'hardware-long'
p75
S'Marvell DB-78xx0-BP Development Board'
p76
ss(S'image'
g39
NS'iop32x'
tp77
(dp78
S'check-size'
p79
S'1441784'
p80
ss(S'xen'
g55
S'none'
p81
S'amd64'
tp82
(dp83
S'flavours'
p84
(lp85
S'amd64'
p86
asS'dom0-support'
p87
I01
ss(S'version'
p88
tp89
(dp90
S'abiname'
p91
S'3.2.0-0.bpo.3'
p92
sS'source'
p93
V3.2.23-1~bpo60+2
p94
ss(S'description'
g5
g21
S'amd64'
tp95
(dp96
S'parts'
p97
(lp98
S'xen'
p99
ass(S'description'
S'ppc64'
p100
NS'powerpc64'
tp101
(dp102
S'hardware'
p103
S'64-bit PowerPC'
p104
ss(S'description'
S'mips'
p105
NS'r5k-ip32'
tp106
(dp107
S'hardware'
p108
S'SGI IP32'
p109
sS'hardware-long'
p110
S'SGI IP32 systems (O2)'
p111
ss(S'base'
p112
g100
S'none'
p113
tp114
(dp115
S'implicit-flavour'
p116
I01
sS'flavours'
p117
(lp118
S'powerpc64'
p119
ass(S'base'
NS'rt'
tp120
(dp121
S'enabled'
p122
I01
ss(S'image'
g55
NS'amd64'
tp123
(dp124
S'configs'
p125
(lp126
S'kernelarch-x86/config-arch-64'
p127
asS'recommends'
p128
S'libc6-i686'
p129
ss(S'base'
S'alpha'
p130
tp131
(dp132
S'kernel-arch'
p133
S'alpha'
p134
sS'featuresets'
p135
(lp136
g113
asS'compiler'
p137
S'gcc-4.5'
p138
ss(g112
S'armhf'
p139
g113
tp140
(dp141
g116
I01
sg117
(lp142
S'mx5'
p143
aS'omap'
p144
aS'vexpress'
p145
ass(S'description'
g105
NS'4kc-malta'
tp146
(dp147
S'hardware'
p148
S'MIPS Malta'
p149
sS'hardware-long'
p150
S'MIPS Malta boards'
p151
ss(S'base'
g55
S'rt'
tp152
(dp153
S'flavours'
p154
(lp155
S'686-pae'
p156
ass(S'description'
S'powerpc'
p157
NS'powerpc'
tp158
(dp159
S'hardware'
p160
S'uniprocessor 32-bit PowerPC'
p161
ss(g112
g157
g113
tp162
(dp163
g116
I01
sg117
(lp164
S'powerpc'
p165
aS'powerpc-smp'
p166
aS'powerpc64'
p167
ass(S'description'
g105
NS'r4k-ip22'
tp168
(dp169
S'hardware'
p170
S'SGI IP22'
p171
sS'hardware-long'
p172
S'SGI IP22 systems (Indy, Indigo2)'
p173
ss(S'image'
g157
tp174
(dp175
S'suggests'
p176
S'mkvmlinuz'
p177
ss(S'image'
g55
NS'486'
tp178
(dp179
S'configs'
p180
(lp181
S'kernelarch-x86/config-arch-32'
p182
ass(S'description'
g39
NS'versatile'
tp183
(dp184
S'hardware'
p185
S'Versatile'
p186
sS'hardware-long'
p187
S'Versatile systems (PB, AB, Qemu)'
p188
ss(S'base'
g5
S'rt'
tp189
(dp190
S'flavours'
p191
(lp192
S'amd64'
p193
ass(S'description'
g55
g81
S'amd64'
tp194
(dp195
S'parts'
p196
(lp197
S'xen'
p198
ass(S'description'
g27
NS'loongson-2f'
tp199
(dp200
S'hardware'
p201
S'Loongson 2F'
p202
sS'hardware-long'
p203
S'Lemote Loongson 2F systems'
p204
ss(S'base'
g55
tp205
(dp206
S'kernel-arch'
p207
S'x86'
p208
sS'featuresets'
p209
(lp210
S'none'
p211
aS'rt'
p212
ass(S'build'
g67
NS's390x-tape'
tp213
(dp214
S'modules'
p215
I00
ss(S'base'
g27
tp216
(dp217
S'kernel-arch'
p218
S'mips'
p219
sg135
(lp220
g113
ass(S'description'
g157
NS'powerpc-smp'
tp221
(dp222
S'hardware'
p223
S'multiprocessor 32-bit PowerPC'
p224
ss(S'image'
g139
NS'omap'
tp225
(dp226
S'recommends'
p227
S'uboot-mkimage'
p228
ss(S'build'
S'sh4'
p229
NS'sh7751r'
tp230
(dp231
S'image-file'
p232
S'arch/sh/boot/zImage'
p233
ss(g112
g27
g113
tp234
(dp235
g116
I01
sg117
(lp236
S'r5k-cobalt'
p237
aS'sb1-bcm91250a'
p238
aS'sb1a-bcm91480b'
p239
aS'4kc-malta'
p240
aS'5kc-malta'
p241
aS'loongson-2f'
p242
ass(S'relations'
tp243
(dp244
S'initramfs-fallback'
p245
S'linux-initramfs-tool'
p246
sS'gcc-4.5'
p247
S'gcc-4.5'
p248
sS'gcc-4.6'
p249
S'gcc-4.6'
p250
sS'initramfs-tools'
p251
S'initramfs-tools (>= 0.99~)'
p252
sS'gcc-4.4'
p253
S'gcc-4.4'
p254
ss(S'description'
S'hppa'
p255
NS'parisc-smp'
tp256
(dp257
S'hardware'
p258
S'multiprocessor 32-bit PA-RISC'
p259
ss(S'description'
g16
NS'bvme6000'
tp260
(dp261
S'hardware'
p262
S'BVM BVME4000 and BVME6000'
p263
ss(S'build'
S's390x'
p264
NS's390x-tape'
tp265
(dp266
S'modules'
p267
I00
ss(S'xen'
g55
g81
S'686-pae'
tp268
(dp269
S'flavours'
p270
(lp271
S'i386'
p272
aS'amd64'
p273
asS'dom0-support'
p274
I01
ss(S'image'
g27
NS'sb1-bcm91250a'
tp275
(dp276
S'configs'
p277
(lp278
S'mips/config.sb1-bcm91250a'
p279
ass(S'description'
g39
NS'orion5x'
tp280
(dp281
S'hardware'
p282
S'Marvell Orion'
p283
sS'hardware-long'
p284
S'Marvell Orion 5181, 5182 and 5281 based systems (QNAP TS-109/TS-209, etc)'
p285
ss(S'base'
g39
tp286
(dp287
S'kernel-arch'
p288
S'arm'
p289
sg135
(lp290
g113
ass(S'image'
g55
NS'686-pae'
tp291
(dp292
S'configs'
p293
(lp294
S'kernelarch-x86/config-arch-32'
p295
asS'recommends'
p296
S'libc6-i686'
p297
ss(S'description'
g67
NS's390'
tp298
(dp299
S'hardware'
p300
S'IBM S/390'
p301
sS'parts'
p302
(lp303
S'reader'
p304
ass(S'base'
g34
tp305
(dp306
S'kernel-arch'
p307
S'sparc'
p308
sg135
(lp309
g113
ass(S'description'
g139
NS'mx5'
tp310
(dp311
S'hardware'
p312
S'Freescale i.MX51'
p313
sS'hardware-long'
p314
S'Support for Freescale i.MX51 family of processors'
p315
ss(S'image'
g39
NS'orion5x'
tp316
(dp317
S'check-size'
p318
S'1572792'
p319
sS'recommends'
p320
S'uboot-mkimage'
p321
ss(g112
g67
g113
tp322
(dp323
g116
I01
sg117
(lp324
S's390x'
p325
aS's390x-tape'
p326
ass(g112
g264
g113
tp327
(dp328
g116
I01
sg117
(lp329
S's390x'
p330
aS's390x-tape'
p331
ass(S'base'
g105
tp332
(dp333
S'kernel-arch'
p334
S'mips'
p335
sg135
(lp336
g113
ass(S'build'
g5
tp337
(dp338
S'debug-info'
p339
I01
ss(S'build'
g139
NS'mx5'
tp340
(dp341
S'image-file'
p342
S'arch/arm/boot/zImage'
p343
ss(S'description'
g255
NS'parisc64-smp'
tp344
(dp345
S'hardware'
p346
S'multiprocessor 64-bit PA-RISC'
p347
ss(S'build'
g139
NS'vexpress'
tp348
(dp349
S'image-file'
p350
S'arch/arm/boot/zImage'
p351
ss(S'image'
g27
tp352
(dp353
S'configs'
p354
(lp355
S'kernelarch-mips/config'
p356
aS'mipsel/config'
p357
asS'initramfs'
p358
I00
ss(S'build'
g39
NS'orion5x'
tp359
(dp360
S'image-file'
p361
S'arch/arm/boot/zImage'
p362
ss(S'description'
g39
NS'kirkwood'
tp363
(dp364
S'hardware'
p365
S'Marvell Kirkwood'
p366
sS'hardware-long'
p367
S'Marvell Kirkwood based systems (SheevaPlug, QNAP TS-119/TS-219, etc)'
p368
ss(S'description'
g105
NS'5kc-malta'
tp369
(dp370
S'hardware'
p371
S'MIPS Malta (64-bit)'
p372
sS'hardware-long'
p373
S'MIPS Malta boards (64-bit)'
p374
ss(S'image'
g5
NS'amd64'
tp375
(dp376
S'configs'
p377
(lp378
S'kernelarch-x86/config-arch-64'
p379
ass(S'build'
g264
NS's390x'
tp380
(dp381
S'debug-info'
p382
I01
ss(S'image'
g229
NS'sh7785lcr'
tp383
(dp384
S'check-size'
p385
S'4194304'
p386
sS'recommends'
p387
S'uboot-mkimage'
p388
ss(S'description'
g55
NS'486'
tp389
(dp390
S'hardware'
p391
S'older PCs'
p392
sS'parts'
p393
(lp394
S'up'
p395
asS'hardware-long'
p396
S'PCs with a single processor not supporting PAE'
p397
ss(S'base'
g59
tp398
(dp399
S'kernel-arch'
p400
S'ia64'
p401
sg135
(lp402
g113
ass(S'description'
g139
NS'vexpress'
tp403
(dp404
S'hardware'
p405
S'ARM Ltd. Versatile Express'
p406
sS'hardware-long'
p407
S'ARM Ltd. Versatile Express family of processors'
p408
ss(S'description'
g34
NS'sparc64'
tp409
(dp410
S'hardware'
p411
S'uniprocessor 64-bit UltraSPARC'
p412
ss(S'base'
g5
tp413
(dp414
S'kernel-arch'
p415
S'x86'
p416
sS'featuresets'
p417
(lp418
S'none'
p419
aS'rt'
p420
ass(g112
g39
g113
tp421
(dp422
g116
I01
sg117
(lp423
S'iop32x'
p424
aS'ixp4xx'
p425
aS'kirkwood'
p426
aS'mv78xx0'
p427
aS'orion5x'
p428
aS'versatile'
p429
ass(S'description'
g229
NS'sh7751r'
tp430
(dp431
S'hardware'
p432
S'sh7751r'
p433
sS'hardware-long'
p434
S'Renesas SH7751R R2D plus board'
p435
ss(S'description'
g16
NS'mvme16x'
tp436
(dp437
S'hardware'
p438
S'Motorola MVME162/6/7, MVME172/7'
p439
ss(S'description'
g27
NS'sb1a-bcm91480b'
tp440
(dp441
S'hardware'
p442
S'BCM91480B'
p443
sS'hardware-long'
p444
S'Broadcom BCM91480B systems (aka BigSur)'
p445
ss(S'description'
g55
tp446
(dp447
S'part-long-pae'
p448
S'This kernel requires PAE (Physical Address Extension).\nThis feature is supported by the Intel Pentium Pro/II/III/4/4M/D, Xeon,\nCore and Atom; AMD Geode NX, Athlon (K7), Duron, Opteron, Sempron,\nTurion or Phenom; Transmeta Efficeon; VIA C7; and some other processors.'
p449
ss(S'description'
g27
NS'r5k-cobalt'
tp450
(dp451
S'hardware'
p452
S'Cobalt'
p453
sS'hardware-long'
p454
S'Cobalt systems (Qube, RaQ, Qube2, RaQ2)'
p455
ss(S'image'
g139
tp456
(dp457
S'suggests'
p458
S'fdutils'
p459
sS'configs'
p460
(lp461
S'armel/config'
p462
aS'armhf/config'
p463
ass(S'xen'
g5
g21
S'amd64'
tp464
(dp465
S'flavours'
p466
(lp467
S'amd64'
p468
asS'dom0-support'
p469
I01
ss(S'image'
g39
tp470
(dp471
S'suggests'
p472
S'fdutils'
p473
ss(S'description'
g59
NS'itanium'
tp474
(dp475
S'hardware'
p476
S'Itanium'
p477
ss(S'abi'
g264
tp478
(dp479
S'ignore-changes'
p480
(lp481
S'arch_pick_mmap_layout'
p482
ass(S'image'
g255
tp483
(dp484
S'suggests'
p485
S'palo'
p486
ss(S'build'
g67
NS's390x'
tp487
(dp488
S'debug-info'
p489
I01
ss(S'relations'
g255
tp490
(dp491
S'gcc-4.4'
p492
S'gcc-4.4, binutils-hppa64, gcc-4.4-hppa64'
p493
ss(S'description'
g67
NS's390-tape'
tp494
(dp495
S'hardware'
p496
S'IBM S/390'
p497
sS'parts'
p498
(lp499
S'tape'
p500
ass(S'description'
g59
NS'mckinley'
tp501
(dp502
S'hardware'
p503
S'Itanium II'
p504
ss(S'abi'
g67
tp505
(dp506
S'ignore-changes'
p507
(lp508
S'arch_pick_mmap_layout'
p509
ass(S'image'
g67
NS's390x-tape'
tp510
(dp511
S'override-localversion'
p512
S's390x'
p513
sS'type'
p514
S'plain-s390-tape'
p515
sS'initramfs'
p516
I00
ss(S'image'
g39
NS'kirkwood'
tp517
(dp518
S'check-size'
p519
S'2097080'
p520
sS'recommends'
p521
S'uboot-mkimage'
p522
ss(g112
g255
g113
tp523
(dp524
g116
I01
sg117
(lp525
S'parisc'
p526
aS'parisc-smp'
p527
aS'parisc64'
p528
aS'parisc64-smp'
p529
ass(S'image'
g27
NS'loongson-2f'
tp530
(dp531
S'recommends'
p532
S'libc6-loongson2f'
p533
ss(S'image'
g130
tp534
(dp535
S'suggests'
p536
S'aboot, fdutils'
p537
ss(S'description'
g39
NS'ixp4xx'
tp538
(dp539
S'hardware'
p540
S'IXP4xx'
p541
sS'hardware-long'
p542
S'IXP4xx based systems (Linksys NSLU2, etc)'
p543
ss(S'base'
g44
tp544
(dp545
S'kernel-arch'
p546
S'sparc'
p547
sg135
(lp548
g113
ass(S'image'
g264
NS's390x'
tp549
(dp550
S'configs'
p551
(lp552
S's390/config.s390x'
p553
ass(S'base'
g264
tp554
(dp555
S'kernel-arch'
p556
S's390'
p557
sg135
(lp558
g113
ass(S'description'
g39
NS'iop32x'
tp559
(dp560
S'hardware'
p561
S'IOP32x'
p562
sS'hardware-long'
p563
S'IOP32x based systems (Thecus N2100, etc)'
p564
ss(S'abi'
NS'rt'
p565
tp566
(dp567
S'ignore-changes'
p568
(lp569
S'*'
ass(S'description'
g105
NS'sb1-bcm91250a'
tp570
(dp571
S'hardware'
p572
S'BCM91250A'
p573
sS'hardware-long'
p574
S'Broadcom BCM91250A systems (aka SWARM)'
p575
ss(S'description'
g105
NS'octeon'
tp576
(dp577
S'hardware'
p578
S'Octeon'
p579
sS'hardware-long'
p580
S'Cavium Networks Octeon'
p581
ss(S'description'
g34
NS'sparc32'
tp582
(dp583
S'hardware'
p584
S'uniprocessor sparc32 (sun4m)'
p585
ss(S'image'
g100
tp586
(dp587
S'suggests'
p588
S'mkvmlinuz'
p589
sS'configs'
p590
(lp591
S'powerpc/config'
p592
ass(S'image'
g105
tp593
(dp594
S'configs'
p595
(lp596
S'kernelarch-mips/config'
p597
aS'mips/config'
p598
asS'initramfs'
p599
I00
ss(S'image'
g55
tp600
(dp601
S'configs'
p602
(lp603
S'kernelarch-x86/config'
p604
asS'bootloaders'
p605
(lp606
S'grub-pc'
p607
aS'extlinux'
p608
aS'lilo'
p609
ass(g112
g34
g113
tp610
(dp611
g116
I01
sg117
(lp612
S'sparc64'
p613
aS'sparc64-smp'
p614
ass(S'image'
g27
NS'sb1a-bcm91480b'
tp615
(dp616
S'configs'
p617
(lp618
S'mips/config.sb1a-bcm91480b'
p619
ass(S'base'
g100
tp620
(dp621
S'kernel-arch'
p622
S'powerpc'
p623
sg135
(lp624
g113
ass(g112
g105
g113
tp625
(dp626
g116
I01
sg117
(lp627
S'r4k-ip22'
p628
aS'r5k-ip32'
p629
aS'sb1-bcm91250a'
p630
aS'sb1a-bcm91480b'
p631
aS'4kc-malta'
p632
aS'5kc-malta'
p633
aS'octeon'
p634
ass(S'description'
g55
g81
S'686-pae'
tp635
(dp636
S'parts'
p637
(lp638
S'xen'
p639
ass(g112
g59
g113
tp640
(dp641
g116
I01
sg117
(lp642
S'itanium'
p643
aS'mckinley'
p644
ass(S'description'
g67
tp645
(dp646
S'part-short-tape'
p647
S'IPL from tape'
p648
sS'part-long-tape'
p649
S'This kernel has support to IPL (boot) from a tape.'
p650
sS'part-long-reader'
p651
S'This kernel has support to IPL (boot) from a VM reader or DASD device.'
p652
ss(g112
g130
g113
tp653
(dp654
g116
I01
sg117
(lp655
S'alpha-generic'
p656
aS'alpha-smp'
p657
aS'alpha-legacy'
p658
ass(S'description'
g157
NS'powerpc64'
tp659
(dp660
S'hardware'
p661
S'64-bit PowerPC'
p662
ss(S'description'
g16
NS'mvme147'
tp663
(dp664
S'hardware'
p665
S'Motorola MVME147'
p666
ss(S'image'
g27
NS'4kc-malta'
tp667
(dp668
S'configs'
p669
(lp670
S'mips/config.4kc-malta'
p671
ass(S'build'
g39
NS'ixp4xx'
tp672
(dp673
S'image-file'
p674
S'arch/arm/boot/zImage'
p675
ss(S'description'
g27
NS'sb1-bcm91250a'
tp676
(dp677
S'hardware'
p678
S'BCM91250A'
p679
sS'hardware-long'
p680
S'Broadcom BCM91250A systems (aka SWARM)'
p681
ss(S'image'
g16
tp682
(dp683
S'suggests'
p684
S'vmelilo, fdutils'
p685
sS'initramfs'
p686
I00
ss(S'description'
g130
NS'alpha-legacy'
tp687
(dp688
S'hardware'
p689
S'Alpha Legacy'
p690
sS'hardware-long'
p691
S'DEC Alpha systems with legacy kernel start address'
p692
ss(S'image'
g100
NS'powerpc64'
tp693
(dp694
S'configs'
p695
(lp696
S'powerpc/config.powerpc64'
p697
ass(S'base'
g255
NS'parisc64-smp'
tp698
(dp699
S'override-host-type'
p700
S'hppa64-linux-gnu'
p701
sS'cflags'
p702
S'-fno-cse-follow-jumps'
p703
ss(S'base'
g139
tp704
(dp705
S'kernel-arch'
p706
S'arm'
p707
sg135
(lp708
g113
ass(S'image'
g264
NS's390x-tape'
tp709
(dp710
S'configs'
p711
(lp712
S's390/config.s390x-tape'
p713
asS'override-localversion'
p714
S's390x'
p715
sS'type'
p716
S'plain-s390-tape'
p717
sS'initramfs'
p718
I00
ss(S'image'
g157
NS'powerpc-smp'
tp719
(dp720
S'configs'
p721
(lp722
S'powerpc/config.powerpc'
p723
aS'powerpc/config.powerpc-smp'
p724
ass(S'build'
g39
NS'mv78xx0'
tp725
(dp726
S'image-file'
p727
S'arch/arm/boot/zImage'
p728
ss(S'image'
g229
tp729
(dp730
S'suggests'
p731
S'fdutils'
p732
ss(S'base'
g255
tp733
(dp734
S'kernel-arch'
p735
S'parisc'
p736
sg135
(lp737
g113
asS'compiler'
p738
S'gcc-4.4'
p739
ss(S'description'
g130
NS'alpha-generic'
tp740
(dp741
S'hardware'
p742
S'Alpha'
p743
sS'hardware-long'
p744
S'DEC Alpha systems with extended kernel start address (Wildfire, Titan, Marvel)'
p745
ss(S'base'
g229
tp746
(dp747
S'kernel-arch'
p748
S'sh'
p749
sg135
(lp750
g113
ass(S'image'
g34
tp751
(dp752
S'suggests'
p753
S'silo, fdutils'
p754
ss(S'description'
tp755
(dp756
S'part-long-up'
p757
S'This kernel is not suitable for SMP (multi-processor,\nmulti-core or hyper-threaded) systems.'
p758
sS'part-long-xen'
p759
S'This kernel also runs on a Xen hypervisor.\nIt supports both privileged (dom0) and unprivileged (domU) operation.'
p760
ss(S'description'
g27
NS'4kc-malta'
tp761
(dp762
S'hardware'
p763
S'MIPS Malta'
p764
sS'hardware-long'
p765
S'MIPS Malta boards'
p766
ss(g112
g229
g113
tp767
(dp768
g116
I01
sg117
(lp769
S'sh7751r'
p770
aS'sh7785lcr'
p771
ass(S'base'
g67
tp772
(dp773
S'kernel-arch'
p774
S's390'
p775
sg135
(lp776
g113
ass(S'image'
g44
tp777
(dp778
S'suggests'
p779
S'silo, fdutils'
p780
sS'configs'
p781
(lp782
S'sparc/config'
p783
ass(S'description'
g44
NS'sparc64'
tp784
(dp785
S'hardware'
p786
S'uniprocessor 64-bit UltraSPARC'
p787
ss(S'base'
g157
tp788
(dp789
S'kernel-arch'
p790
S'powerpc'
p791
sg135
(lp792
g113
ass(S'build'
g139
NS'omap'
tp793
(dp794
S'image-file'
p795
S'arch/arm/boot/zImage'
p796
ss(S'base'
g255
NS'parisc64'
tp797
(dp798
S'override-host-type'
p799
S'hppa64-linux-gnu'
p800
sS'cflags'
p801
S'-fno-cse-follow-jumps'
p802
ss(S'description'
g16
NS'atari'
tp803
(dp804
S'hardware'
p805
S'Atari'
p806
ss(S'description'
g105
NS'sb1a-bcm91480b'
tp807
(dp808
S'hardware'
p809
S'BCM91480B'
p810
sS'hardware-long'
p811
S'Broadcom BCM91480B systems (aka BigSur)'
p812
ss(S'description'
g55
NS'686-pae'
tp813
(dp814
S'hardware'
p815
S'modern PCs'
p816
sS'parts'
p817
(lp818
S'pae'
p819
asS'hardware-long'
p820
S'PCs with one or more processors supporting PAE'
p821
ss(S'description'
g139
NS'omap'
tp822
(dp823
S'hardware'
p824
S'TI OMAP3+'
p825
sS'hardware-long'
p826
S'Texas Instruments OMAP3 or OMAP4 based systems'
p827
ss(S'description'
g264
NS's390x-tape'
tp828
(dp829
S'hardware'
p830
S'IBM zSeries'
p831
sS'parts'
p832
(lp833
S'tape'
p834
ass(S'description'
g67
NS's390x-tape'
tp835
(dp836
S'hardware'
p837
S'IBM zSeries'
p838
sS'parts'
p839
(lp840
S'tape'
p841
ass(S'description'
g264
tp842
(dp843
S'part-short-tape'
p844
S'IPL from tape'
p845
sS'part-long-tape'
p846
S'This kernel has support to IPL (boot) from a tape.'
p847
sS'part-long-reader'
p848
S'This kernel has support to IPL (boot) from a VM reader or DASD device.'
p849
ss(S'build'
g39
NS'kirkwood'
tp850
(dp851
S'image-file'
p852
S'arch/arm/boot/zImage'
p853
ss(S'abi'
tp854
(dp855
S'abiname'
p856
S'0.bpo.3'
p857
sS'ignore-changes'
p858
(lp859
S'module:drivers/net/wireless/ath/*'
p860
ass(S'image'
g67
NS's390-tape'
tp861
(dp862
S'override-localversion'
p863
S's390'
p864
sS'type'
p865
S'plain-s390-tape'
p866
sS'initramfs'
p867
I00
ss(S'description'
Ng565
tp868
(dp869
S'part-long-rt'
p870
S'This kernel includes the PREEMPT_RT realtime patch set.'
p871
sS'parts'
p872
(lp873
S'rt'
p874
asS'part-short-rt'
p875
S'PREEMPT_RT'
p876
ss(S'description'
g16
NS'mac'
tp877
(dp878
S'hardware'
p879
S'Macintosh'
p880
ss(g112
g16
g113
tp881
(dp882
g116
I01
sg117
(lp883
S'amiga'
p884
aS'atari'
p885
aS'bvme6000'
p886
aS'mac'
p887
aS'mvme147'
p888
aS'mvme16x'
p889
ass(S'base'
g55
g81
tp890
(dp891
S'flavours'
p892
(lp893
S'486'
p894
aS'686-pae'
p895
aS'amd64'
p896
ass(S'base'
tp897
(dp898
S'arches'
p899
(lp900
S'alpha'
p901
aS'amd64'
p902
aS'armel'
p903
aS'armhf'
p904
aS'hppa'
p905
aS'i386'
p906
aS'ia64'
p907
aS'm68k'
p908
aS'mips'
p909
aS'mipsel'
p910
aS'powerpc'
p911
aS'ppc64'
p912
aS's390'
p913
aS's390x'
p914
aS'sh4'
p915
aS'sparc'
p916
aS'sparc64'
p917
asS'featuresets'
p918
(lp919
S'none'
p920
aS'rt'
p921
asS'compiler'
p922
S'gcc-4.4'
p923
ss(S'description'
g255
NS'parisc'
tp924
(dp925
S'hardware'
p926
S'32-bit PA-RISC'
p927
ss(S'image'
g44
NS'sparc64'
tp928
(dp929
S'configs'
p930
(lp931
S'sparc/config.sparc64'
p932
ass(S'image'
g67
tp933
(dp934
S'bootloaders'
p935
(lp936
S's390-tools'
p937
ass(S'description'
g229
NS'sh7785lcr'
tp938
(dp939
S'hardware'
p940
S'sh7785lcr'
p941
sS'hardware-long'
p942
S'Renesas SH7785 reference board'
p943
ss(S'description'
g55
NS'amd64'
tp944
(dp945
S'hardware'
p946
S'64-bit PCs'
p947
sS'hardware-long'
p948
S'PCs with AMD64 or Intel 64 processors'
p949
ss(S'base'
g16
tp950
(dp951
S'kernel-arch'
p952
S'm68k'
p953
sg135
(lp954
g113
asS'cflags'
p955
S'-ffreestanding'
p956
sS'compiler'
p957
S'gcc-4.6'
p958
ss(S'description'
g255
NS'parisc64'
tp959
(dp960
S'hardware'
p961
S'64-bit PA-RISC'
p962
ss(S'image'
tp963
(dp964
S'initramfs-generators'
p965
(lp966
S'initramfs-tools'
p967
aS'initramfs-fallback'
p968
asS'type'
p969
S'plain'
p970
ss(S'image'
g34
NS'sparc32'
tp971
(dp972
S'image-postproc'
p973
S'sparc32-image-postproc'
p974
ss(g112
g44
g113
tp975
(dp976
g116
I01
sg117
(lp977
S'sparc64'
p978
aS'sparc64-smp'
p979
ass(S'description'
g264
NS's390x'
tp980
(dp981
S'hardware'
p982
S'IBM zSeries'
p983
sS'parts'
p984
(lp985
S'reader'
p986
ass(S'description'
g44
NS'sparc64-smp'
tp987
(dp988
S'hardware'
p989
S'multiprocessor 64-bit UltraSPARC'
p990
ss(S'description'
g67
NS's390x'
tp991
(dp992
S'hardware'
p993
S'IBM zSeries'
p994
sS'parts'
p995
(lp996
S'reader'
p997
ass(S'image'
g264
tp998
(dp999
S'configs'
p1000
(lp1001
S's390/config'
p1002
asS'bootloaders'
p1003
(lp1004
S's390-tools'
p1005
ass(S'description'
g5
NS'amd64'
tp1006
(dp1007
S'hardware'
p1008
S'64-bit PCs'
p1009
sS'hardware-long'
p1010
S'PCs with AMD64 or Intel 64 processors'
p1011
ss(S'build'
g39
NS'iop32x'
tp1012
(dp1013
S'image-file'
p1014
S'arch/arm/boot/zImage'
p1015
ss(S'build'
g229
NS'sh7785lcr'
tp1016
(dp1017
S'image-file'
p1018
S'arch/sh/boot/zImage'
p1019
ss(S'description'
g130
NS'alpha-smp'
tp1020
(dp1021
S'hardware'
p1022
S'Alpha SMP'
p1023
sS'hardware-long'
p1024
S'DEC Alpha SMP systems with extended kernel start address (Wildfire, Titan, Marvel)'
p1025
sstRp1026
.